

Microchip MPLAB XC8 Assembler V2.10 build 88905656 
                                                                                               Wed Feb 05 15:44:40 2020

Microchip MPLAB XC8 C Compiler v2.10 (Free license) build 20190730164152 Og1 
     1                           	processor	16F887
     2                           	opt	pw 120
     3                           	opt	flic
     4                           	psect	idataBANK0,global,class=CODE,delta=2
     5                           	psect	cinit,global,class=CODE,merge=1,delta=2
     6                           	psect	bssCOMMON,global,class=COMMON,space=1,delta=1
     7                           	psect	dataBANK0,global,class=BANK0,space=1,delta=1
     8                           	psect	inittext,global,class=CODE,delta=2
     9                           	psect	cstackCOMMON,global,class=COMMON,space=1,delta=1
    10                           	psect	maintext,global,class=CODE,split=1,delta=2
    11                           	psect	text1,local,class=CODE,merge=1,delta=2
    12                           	psect	text2,local,class=CODE,merge=1,delta=2
    13                           	psect	text3,local,class=CODE,merge=1,delta=2
    14                           	psect	text4,local,class=CODE,merge=1,delta=2
    15                           	psect	intentry,global,class=CODE,delta=2
    16                           	psect	text5,local,class=CODE,merge=1,delta=2
    17                           	dabs	1,0x7E,2
    18  0000                     
    19                           ; Version 2.10
    20                           ; Generated 31/07/2019 GMT
    21                           ; 
    22                           ; Copyright © 2019, Microchip Technology Inc. and its subsidiaries ("Microchip")
    23                           ; All rights reserved.
    24                           ; 
    25                           ; This software is developed by Microchip Technology Inc. and its subsidiaries ("Microch
      +                          ip").
    26                           ; 
    27                           ; Redistribution and use in source and binary forms, with or without modification, are
    28                           ; permitted provided that the following conditions are met:
    29                           ; 
    30                           ;     1. Redistributions of source code must retain the above copyright notice, this lis
      +                          t of
    31                           ;        conditions and the following disclaimer.
    32                           ; 
    33                           ;     2. Redistributions in binary form must reproduce the above copyright notice, this 
      +                          list
    34                           ;        of conditions and the following disclaimer in the documentation and/or other
    35                           ;        materials provided with the distribution.
    36                           ; 
    37                           ;     3. Microchip's name may not be used to endorse or promote products derived from th
      +                          is
    38                           ;        software without specific prior written permission.
    39                           ; 
    40                           ; THIS SOFTWARE IS PROVIDED BY MICROCHIP "AS IS" AND ANY EXPRESS OR IMPLIED WARRANTIES,
    41                           ; INCLUDING, BUT NOT LIMITED TO, THE IMPLIED WARRANTIES OF MERCHANTABILITY AND FITNESS F
      +                          OR
    42                           ; PURPOSE ARE DISCLAIMED.  IN NO EVENT SHALL MICROCHIP BE LIABLE FOR ANY DIRECT, INDIREC
      +                          T,
    43                           ; INCIDENTAL, SPECIAL, EXEMPLARY, OR CONSEQUENTIAL DAMAGES (INCLUDING BUT NOT LIMITED TO
    44                           ; PROCUREMENT OF SUBSTITUTE GOODS OR SERVICES; LOSS OF USE, DATA OR PROFITS; OR BUSINESS
    45                           ; INTERRUPTION) HOWSOEVER CAUSED AND ON ANY THEORY OF LIABILITY, WHETHER IN CONTRACT, ST
      +                          RICT
    46                           ; LIABILITY, OR TORT (INCLUDING NEGLIGENCE OR OTHERWISE) ARISING IN ANY WAY OUT OF THE U
      +                          SE OF
    47                           ; THIS SOFTWARE, EVEN IF ADVISED OF THE POSSIBILITY OF SUCH DAMAGE.
    48                           ; 
    49                           ; 
    50                           ; Code-generator required, PIC16F887 Definitions
    51                           ; 
    52                           ; SFR Addresses
    53  0000                     	;# 
    54  0001                     	;# 
    55  0002                     	;# 
    56  0003                     	;# 
    57  0004                     	;# 
    58  0005                     	;# 
    59  0006                     	;# 
    60  0007                     	;# 
    61  0008                     	;# 
    62  0009                     	;# 
    63  000A                     	;# 
    64  000B                     	;# 
    65  000C                     	;# 
    66  000D                     	;# 
    67  000E                     	;# 
    68  000E                     	;# 
    69  000F                     	;# 
    70  0010                     	;# 
    71  0011                     	;# 
    72  0012                     	;# 
    73  0013                     	;# 
    74  0014                     	;# 
    75  0015                     	;# 
    76  0015                     	;# 
    77  0016                     	;# 
    78  0017                     	;# 
    79  0018                     	;# 
    80  0019                     	;# 
    81  001A                     	;# 
    82  001B                     	;# 
    83  001B                     	;# 
    84  001C                     	;# 
    85  001D                     	;# 
    86  001E                     	;# 
    87  001F                     	;# 
    88  0081                     	;# 
    89  0085                     	;# 
    90  0086                     	;# 
    91  0087                     	;# 
    92  0088                     	;# 
    93  0089                     	;# 
    94  008C                     	;# 
    95  008D                     	;# 
    96  008E                     	;# 
    97  008F                     	;# 
    98  0090                     	;# 
    99  0091                     	;# 
   100  0092                     	;# 
   101  0093                     	;# 
   102  0093                     	;# 
   103  0093                     	;# 
   104  0094                     	;# 
   105  0095                     	;# 
   106  0096                     	;# 
   107  0097                     	;# 
   108  0098                     	;# 
   109  0099                     	;# 
   110  009A                     	;# 
   111  009B                     	;# 
   112  009C                     	;# 
   113  009D                     	;# 
   114  009E                     	;# 
   115  009F                     	;# 
   116  0105                     	;# 
   117  0107                     	;# 
   118  0108                     	;# 
   119  0109                     	;# 
   120  010C                     	;# 
   121  010C                     	;# 
   122  010D                     	;# 
   123  010E                     	;# 
   124  010F                     	;# 
   125  0185                     	;# 
   126  0187                     	;# 
   127  0188                     	;# 
   128  0189                     	;# 
   129  018C                     	;# 
   130  018D                     	;# 
   131  0000                     	;# 
   132  0001                     	;# 
   133  0002                     	;# 
   134  0003                     	;# 
   135  0004                     	;# 
   136  0005                     	;# 
   137  0006                     	;# 
   138  0007                     	;# 
   139  0008                     	;# 
   140  0009                     	;# 
   141  000A                     	;# 
   142  000B                     	;# 
   143  000C                     	;# 
   144  000D                     	;# 
   145  000E                     	;# 
   146  000E                     	;# 
   147  000F                     	;# 
   148  0010                     	;# 
   149  0011                     	;# 
   150  0012                     	;# 
   151  0013                     	;# 
   152  0014                     	;# 
   153  0015                     	;# 
   154  0015                     	;# 
   155  0016                     	;# 
   156  0017                     	;# 
   157  0018                     	;# 
   158  0019                     	;# 
   159  001A                     	;# 
   160  001B                     	;# 
   161  001B                     	;# 
   162  001C                     	;# 
   163  001D                     	;# 
   164  001E                     	;# 
   165  001F                     	;# 
   166  0081                     	;# 
   167  0085                     	;# 
   168  0086                     	;# 
   169  0087                     	;# 
   170  0088                     	;# 
   171  0089                     	;# 
   172  008C                     	;# 
   173  008D                     	;# 
   174  008E                     	;# 
   175  008F                     	;# 
   176  0090                     	;# 
   177  0091                     	;# 
   178  0092                     	;# 
   179  0093                     	;# 
   180  0093                     	;# 
   181  0093                     	;# 
   182  0094                     	;# 
   183  0095                     	;# 
   184  0096                     	;# 
   185  0097                     	;# 
   186  0098                     	;# 
   187  0099                     	;# 
   188  009A                     	;# 
   189  009B                     	;# 
   190  009C                     	;# 
   191  009D                     	;# 
   192  009E                     	;# 
   193  009F                     	;# 
   194  0105                     	;# 
   195  0107                     	;# 
   196  0108                     	;# 
   197  0109                     	;# 
   198  010C                     	;# 
   199  010C                     	;# 
   200  010D                     	;# 
   201  010E                     	;# 
   202  010F                     	;# 
   203  0185                     	;# 
   204  0187                     	;# 
   205  0188                     	;# 
   206  0189                     	;# 
   207  018C                     	;# 
   208  018D                     	;# 
   209                           
   210                           	psect	idataBANK0
   211  0132                     __pidataBANK0:	
   212                           
   213                           ;initializer for _DISPLAY2
   214  0132  343F               	retlw	63
   215  0133  3406               	retlw	6
   216  0134  345B               	retlw	91
   217  0135  344F               	retlw	79
   218  0136  3466               	retlw	102
   219  0137  346D               	retlw	109
   220  0138  347D               	retlw	125
   221  0139  3407               	retlw	7
   222  013A  347F               	retlw	127
   223  013B  346F               	retlw	111
   224  013C  3477               	retlw	119
   225  013D  347C               	retlw	124
   226  013E  3439               	retlw	57
   227  013F  345E               	retlw	94
   228  0140  3479               	retlw	121
   229  0141  3471               	retlw	113
   230                           
   231                           ;initializer for _DISPLAY1
   232  0142  343F               	retlw	63
   233  0143  3406               	retlw	6
   234  0144  345B               	retlw	91
   235  0145  344F               	retlw	79
   236  0146  3466               	retlw	102
   237  0147  346D               	retlw	109
   238  0148  347D               	retlw	125
   239  0149  3407               	retlw	7
   240  014A  347F               	retlw	127
   241  014B  346F               	retlw	111
   242  014C  3477               	retlw	119
   243  014D  347C               	retlw	124
   244  014E  3439               	retlw	57
   245  014F  345E               	retlw	94
   246  0150  3479               	retlw	121
   247  0151  3471               	retlw	113
   248  001E                     _ADRESH	set	30
   249  001F                     _ADCON0bits	set	31
   250  0009                     _PORTE	set	9
   251  0008                     _PORTD	set	8
   252  0007                     _PORTC	set	7
   253  0006                     _PORTB	set	6
   254  000C                     _PIR1bits	set	12
   255  000B                     _INTCONbits	set	11
   256  0005                     _PORTA	set	5
   257  0001                     _TMR0	set	1
   258  0041                     _RD1	set	65
   259  0040                     _RD0	set	64
   260  0042                     _RD2	set	66
   261  0031                     _RB1	set	49
   262  0030                     _RB0	set	48
   263  005A                     _TMR0IF	set	90
   264  0096                     _IOCBbits	set	150
   265  008C                     _PIE1bits	set	140
   266  0081                     _OPTION_REGbits	set	129
   267  009F                     _ADCON1bits	set	159
   268  0089                     _TRISE	set	137
   269  0088                     _TRISD	set	136
   270  0087                     _TRISC	set	135
   271  0086                     _TRISB	set	134
   272  0085                     _TRISA	set	133
   273  008F                     _OSCCONbits	set	143
   274  0189                     _ANSELH	set	393
   275  0188                     _ANSEL	set	392
   276                           
   277                           ; #config settings
   278  0000                     
   279                           	psect	cinit
   280  000F                     start_initialization:	
   281  000F                     __initialization:	
   282                           
   283                           ; Initialize objects allocated to BANK0
   284  000F  1383               	bcf	3,7	;select IRP bank0
   285  0010  3040               	movlw	low (__pdataBANK0+32)
   286  0011  00FD               	movwf	btemp+-1
   287  0012  3001               	movlw	high __pidataBANK0
   288  0013  00FE               	movwf	btemp
   289  0014  3032               	movlw	low __pidataBANK0
   290  0015  00FF               	movwf	btemp+1
   291  0016  3020               	movlw	low __pdataBANK0
   292  0017  0084               	movwf	4
   293  0018  120A  118A  2156  120A  118A  	fcall	init_ram0
   294                           
   295                           ; Clear objects allocated to COMMON
   296  001D  01F0               	clrf	__pbssCOMMON& (0+127)
   297  001E  01F1               	clrf	(__pbssCOMMON+1)& (0+127)
   298  001F  01F2               	clrf	(__pbssCOMMON+2)& (0+127)
   299  0020  01F3               	clrf	(__pbssCOMMON+3)& (0+127)
   300  0021  01F4               	clrf	(__pbssCOMMON+4)& (0+127)
   301  0022  01F5               	clrf	(__pbssCOMMON+5)& (0+127)
   302  0023  01F6               	clrf	(__pbssCOMMON+6)& (0+127)
   303  0024  01F7               	clrf	(__pbssCOMMON+7)& (0+127)
   304  0025                     end_of_initialization:	
   305                           ;End of C runtime variable initialization code
   306                           
   307  0025                     __end_of__initialization:	
   308  0025  0183               	clrf	3
   309  0026  120A  118A  2884   	ljmp	_main	;jump to C main() function
   310                           
   311                           	psect	bssCOMMON
   312  0070                     __pbssCOMMON:	
   313  0070                     _ANTIREBOTEB:	
   314  0070                     	ds	1
   315  0071                     _ANTIREBOTEA:	
   316  0071                     	ds	1
   317  0072                     _ADC:	
   318  0072                     	ds	1
   319  0073                     _y:	
   320  0073                     	ds	1
   321  0074                     _x:	
   322  0074                     	ds	1
   323  0075                     _i:	
   324  0075                     	ds	1
   325  0076                     _z:	
   326  0076                     	ds	1
   327  0077                     _BANDERA:	
   328  0077                     	ds	1
   329                           
   330                           	psect	dataBANK0
   331  0020                     __pdataBANK0:	
   332  0020                     _DISPLAY2:	
   333  0020                     	ds	16
   334  0030                     _DISPLAY1:	
   335  0030                     	ds	16
   336                           
   337                           	psect	inittext
   338  0152                     init_fetch0:	
   339                           ;	Called with low address in FSR and high address in W
   340                           
   341  0152  087E               	movf	btemp,w
   342  0153  008A               	movwf	10
   343  0154  087F               	movf	btemp+1,w
   344  0155  0082               	movwf	2
   345  0156                     init_ram0:	
   346                           ;Called with:
   347                           ;	high address of idata address in btemp 
   348                           ;	low address of idata address in btemp+1 
   349                           ;	low address of data in FSR
   350                           ;	high address + 1 of data in btemp-1
   351                           
   352  0156  120A  118A  2152  120A  118A  	fcall	init_fetch0
   353  015B  0080               	movwf	0
   354  015C  0A84               	incf	4,f
   355  015D  0804               	movf	4,w
   356  015E  067D               	xorwf	btemp+-1,w
   357  015F  1903               	btfsc	3,2
   358  0160  3400               	retlw	0
   359  0161  0AFF               	incf	btemp+1,f
   360  0162  1903               	btfsc	3,2
   361  0163  0AFE               	incf	btemp,f
   362  0164  2956               	goto	init_ram0
   363                           
   364                           	psect	cstackCOMMON
   365  0078                     __pcstackCOMMON:	
   366  0078                     ?_TOGGLE:	
   367  0078                     ??_TOGGLE:	
   368                           ; 1 bytes @ 0x0
   369                           
   370  0078                     ?_analogico:	
   371                           ; 1 bytes @ 0x0
   372                           
   373  0078                     ?_NIBBLES:	
   374                           ; 1 bytes @ 0x0
   375                           
   376  0078                     ?_desplegar:	
   377                           ; 1 bytes @ 0x0
   378                           
   379  0078                     ?_ISR:	
   380                           ; 1 bytes @ 0x0
   381                           
   382  0078                     ??_ISR:	
   383                           ; 1 bytes @ 0x0
   384                           
   385  0078                     ?_main:	
   386                           ; 1 bytes @ 0x0
   387                           
   388                           
   389                           ; 1 bytes @ 0x0
   390  0078                     	ds	3
   391  007B                     ??_NIBBLES:	
   392  007B                     ??_desplegar:	
   393                           ; 1 bytes @ 0x3
   394                           
   395                           
   396                           ; 1 bytes @ 0x3
   397  007B                     	ds	2
   398  007D                     ??_analogico:	
   399                           
   400                           ; 1 bytes @ 0x5
   401  007D                     	ds	1
   402  007E                     ??_main:	
   403                           
   404                           	psect	maintext
   405  0084                     __pmaintext:	
   406                           ; 1 bytes @ 0x6
   407 ;;
   408 ;;Main: autosize = 0, tempsize = 0, incstack = 0, save=0
   409 ;;
   410 ;; *************** function _main *****************
   411 ;; Defined at:
   412 ;;		line 120 in file "lab2.c"
   413 ;; Parameters:    Size  Location     Type
   414 ;;		None
   415 ;; Auto vars:     Size  Location     Type
   416 ;;		None
   417 ;; Return value:  Size  Location     Type
   418 ;;                  1    wreg      void 
   419 ;; Registers used:
   420 ;;		wreg, fsr0l, fsr0h, status,2, status,0, pclath, cstack
   421 ;; Tracked objects:
   422 ;;		On entry : B00/0
   423 ;;		On exit  : 0/0
   424 ;;		Unchanged: 0/0
   425 ;; Data sizes:     COMMON   BANK0   BANK1   BANK3   BANK2
   426 ;;      Params:         0       0       0       0       0
   427 ;;      Locals:         0       0       0       0       0
   428 ;;      Temps:          0       0       0       0       0
   429 ;;      Totals:         0       0       0       0       0
   430 ;;Total ram usage:        0 bytes
   431 ;; Hardware stack levels required when called:    4
   432 ;; This function calls:
   433 ;;		_analogico
   434 ;; This function is called by:
   435 ;;		Startup code after reset
   436 ;; This function uses a non-reentrant model
   437 ;;
   438                           
   439                           
   440                           ;psect for function _main
   441  0084                     _main:	
   442  0084                     l821:	
   443                           ;incstack = 0
   444                           ; Regs used in _main: [wreg-fsr0h+status,2+status,0+pclath+cstack]
   445                           
   446                           
   447                           ;lab2.c: 124:     OSCCONbits.IRCF = 0b111;
   448  0084  3070               	movlw	112
   449  0085  1683               	bsf	3,5	;RP0=1, select bank1
   450  0086  1303               	bcf	3,6	;RP1=0, select bank1
   451  0087  048F               	iorwf	15,f	;volatile
   452  0088                     l823:	
   453                           
   454                           ;lab2.c: 125:     OSCCONbits.OSTS= 0;
   455  0088  118F               	bcf	15,3	;volatile
   456  0089                     l825:	
   457                           
   458                           ;lab2.c: 126:     OSCCONbits.HTS = 0;
   459  0089  110F               	bcf	15,2	;volatile
   460  008A                     l827:	
   461                           
   462                           ;lab2.c: 127:     OSCCONbits.LTS = 0;
   463  008A  108F               	bcf	15,1	;volatile
   464  008B                     l829:	
   465                           
   466                           ;lab2.c: 128:     OSCCONbits.SCS = 1;
   467  008B  140F               	bsf	15,0	;volatile
   468  008C                     l831:	
   469                           
   470                           ;lab2.c: 132:     ANSEL = 0b00000000;
   471  008C  1683               	bsf	3,5	;RP0=1, select bank3
   472  008D  1703               	bsf	3,6	;RP1=1, select bank3
   473  008E  0188               	clrf	8	;volatile
   474  008F                     l833:	
   475                           
   476                           ;lab2.c: 133:     ANSELH = 0b00100000;
   477  008F  3020               	movlw	32
   478  0090  0089               	movwf	9	;volatile
   479  0091                     l835:	
   480                           
   481                           ;lab2.c: 134:     TRISA = 0b00000000;
   482  0091  1683               	bsf	3,5	;RP0=1, select bank1
   483  0092  1303               	bcf	3,6	;RP1=0, select bank1
   484  0093  0185               	clrf	5	;volatile
   485  0094                     l837:	
   486                           
   487                           ;lab2.c: 135:     TRISB = 0b00100011;
   488  0094  3023               	movlw	35
   489  0095  0086               	movwf	6	;volatile
   490  0096                     l839:	
   491                           
   492                           ;lab2.c: 137:     TRISC = 0b00000000;
   493  0096  0187               	clrf	7	;volatile
   494  0097                     l841:	
   495                           
   496                           ;lab2.c: 138:     TRISD = 0b00000000;
   497  0097  0188               	clrf	8	;volatile
   498  0098                     l843:	
   499                           
   500                           ;lab2.c: 139:     TRISE = 0;
   501  0098  0189               	clrf	9	;volatile
   502  0099                     l845:	
   503                           
   504                           ;lab2.c: 140:     PORTA = 0;
   505  0099  1283               	bcf	3,5	;RP0=0, select bank0
   506  009A  1303               	bcf	3,6	;RP1=0, select bank0
   507  009B  0185               	clrf	5	;volatile
   508  009C                     l847:	
   509                           
   510                           ;lab2.c: 141:     PORTB = 0;
   511  009C  0186               	clrf	6	;volatile
   512  009D                     l849:	
   513                           
   514                           ;lab2.c: 142:     PORTC = 0;
   515  009D  0187               	clrf	7	;volatile
   516  009E                     l851:	
   517                           
   518                           ;lab2.c: 143:     PORTD = 0;
   519  009E  0188               	clrf	8	;volatile
   520  009F                     l853:	
   521                           
   522                           ;lab2.c: 144:     PORTE = 0;
   523  009F  0189               	clrf	9	;volatile
   524  00A0                     l855:	
   525                           
   526                           ;lab2.c: 147:     ADCON0bits.ADCS0 = 1;
   527  00A0  171F               	bsf	31,6	;volatile
   528  00A1                     l857:	
   529                           
   530                           ;lab2.c: 148:     ADCON0bits.ADCS1 = 0;
   531  00A1  139F               	bcf	31,7	;volatile
   532  00A2                     l859:	
   533                           
   534                           ;lab2.c: 149:     ADCON0bits.CHS0 = 1;
   535  00A2  151F               	bsf	31,2	;volatile
   536  00A3                     l861:	
   537                           
   538                           ;lab2.c: 150:     ADCON0bits.CHS1 = 0;
   539  00A3  119F               	bcf	31,3	;volatile
   540  00A4                     l863:	
   541                           
   542                           ;lab2.c: 151:     ADCON0bits.CHS2 = 1;
   543  00A4  161F               	bsf	31,4	;volatile
   544  00A5                     l865:	
   545                           
   546                           ;lab2.c: 152:     ADCON0bits.CHS3 = 1;
   547  00A5  169F               	bsf	31,5	;volatile
   548  00A6                     l867:	
   549                           
   550                           ;lab2.c: 153:     ADCON0bits.ADON = 1;
   551  00A6  141F               	bsf	31,0	;volatile
   552  00A7                     l869:	
   553                           
   554                           ;lab2.c: 154:     ADCON1bits.ADFM = 0;
   555  00A7  1683               	bsf	3,5	;RP0=1, select bank1
   556  00A8  1303               	bcf	3,6	;RP1=0, select bank1
   557  00A9  139F               	bcf	31,7	;volatile
   558  00AA                     l871:	
   559                           
   560                           ;lab2.c: 155:     ADCON1bits.VCFG0 = 0;
   561  00AA  121F               	bcf	31,4	;volatile
   562  00AB                     l873:	
   563                           
   564                           ;lab2.c: 156:     ADCON1bits.VCFG1 = 0;
   565  00AB  129F               	bcf	31,5	;volatile
   566  00AC                     l875:	
   567                           
   568                           ;lab2.c: 159:     OPTION_REGbits.nRBPU = 1;
   569  00AC  1781               	bsf	1,7	;volatile
   570  00AD                     l877:	
   571                           
   572                           ;lab2.c: 160:     OPTION_REGbits.INTEDG = 0;
   573  00AD  1301               	bcf	1,6	;volatile
   574  00AE                     l879:	
   575                           
   576                           ;lab2.c: 161:     OPTION_REGbits.T0CS = 0;
   577  00AE  1281               	bcf	1,5	;volatile
   578  00AF                     l881:	
   579                           
   580                           ;lab2.c: 162:     OPTION_REGbits.T0SE = 0;
   581  00AF  1201               	bcf	1,4	;volatile
   582  00B0                     l883:	
   583                           
   584                           ;lab2.c: 163:     OPTION_REGbits.PSA = 0;
   585  00B0  1181               	bcf	1,3	;volatile
   586                           
   587                           ;lab2.c: 164:     OPTION_REGbits.PS = 0b000;
   588  00B1  30F8               	movlw	-8
   589  00B2  0581               	andwf	1,f	;volatile
   590  00B3                     l885:	
   591                           
   592                           ;lab2.c: 165:     TMR0 = 2;
   593  00B3  3002               	movlw	2
   594  00B4  1283               	bcf	3,5	;RP0=0, select bank0
   595  00B5  1303               	bcf	3,6	;RP1=0, select bank0
   596  00B6  0081               	movwf	1	;volatile
   597  00B7                     l887:	
   598                           
   599                           ;lab2.c: 168:     INTCONbits.GIE = 1;
   600  00B7  178B               	bsf	11,7	;volatile
   601  00B8                     l889:	
   602                           
   603                           ;lab2.c: 170:     INTCONbits.T0IE= 1;
   604  00B8  168B               	bsf	11,5	;volatile
   605  00B9                     l891:	
   606                           
   607                           ;lab2.c: 173:     INTCONbits.T0IF= 0;
   608  00B9  110B               	bcf	11,2	;volatile
   609  00BA                     l893:	
   610                           
   611                           ;lab2.c: 180:     PIE1bits.ADIE = 1;
   612  00BA  1683               	bsf	3,5	;RP0=1, select bank1
   613  00BB  1303               	bcf	3,6	;RP1=0, select bank1
   614  00BC  170C               	bsf	12,6	;volatile
   615  00BD                     l895:	
   616                           
   617                           ;lab2.c: 181:     PIR1bits.ADIF = 0;
   618  00BD  1283               	bcf	3,5	;RP0=0, select bank0
   619  00BE  1303               	bcf	3,6	;RP1=0, select bank0
   620  00BF  130C               	bcf	12,6	;volatile
   621  00C0                     l897:	
   622                           
   623                           ;lab2.c: 183:     INTCONbits.PEIE = 1;
   624  00C0  170B               	bsf	11,6	;volatile
   625  00C1                     l899:	
   626                           
   627                           ;lab2.c: 186:     INTCONbits.RBIF= 0;
   628  00C1  100B               	bcf	11,0	;volatile
   629  00C2                     l901:	
   630                           
   631                           ;lab2.c: 187:     INTCONbits.RBIE= 1;
   632  00C2  158B               	bsf	11,3	;volatile
   633  00C3                     l903:	
   634                           
   635                           ;lab2.c: 188:     IOCBbits.IOCB0 = 1;
   636  00C3  1683               	bsf	3,5	;RP0=1, select bank1
   637  00C4  1303               	bcf	3,6	;RP1=0, select bank1
   638  00C5  1416               	bsf	22,0	;volatile
   639  00C6                     l905:	
   640                           
   641                           ;lab2.c: 189:     IOCBbits.IOCB1 = 1;
   642  00C6  1496               	bsf	22,1	;volatile
   643  00C7                     l907:	
   644                           
   645                           ;lab2.c: 191:     i = 0;
   646  00C7  01F5               	clrf	_i
   647  00C8                     l909:	
   648                           
   649                           ;lab2.c: 192:     z = 0;
   650  00C8  01F6               	clrf	_z
   651  00C9                     l911:	
   652                           
   653                           ;lab2.c: 193:     RD2 = 0;
   654  00C9  1283               	bcf	3,5	;RP0=0, select bank0
   655  00CA  1303               	bcf	3,6	;RP1=0, select bank0
   656  00CB  1108               	bcf	8,2	;volatile
   657  00CC                     l913:	
   658                           
   659                           ;lab2.c: 194:     RD0 = 0;
   660  00CC  1008               	bcf	8,0	;volatile
   661  00CD                     l915:	
   662                           
   663                           ;lab2.c: 195:     RD1 = 0;
   664  00CD  1088               	bcf	8,1	;volatile
   665  00CE                     l917:	
   666                           
   667                           ;lab2.c: 196:     y=0;
   668  00CE  01F3               	clrf	_y
   669  00CF                     l919:	
   670                           
   671                           ;lab2.c: 197:     x=0;
   672  00CF  01F4               	clrf	_x
   673  00D0                     l921:	
   674                           
   675                           ;lab2.c: 198:     BANDERA = 0;
   676  00D0  01F7               	clrf	_BANDERA
   677  00D1                     l923:	
   678                           
   679                           ;lab2.c: 199:     analogico();
   680  00D1  120A  118A  20D9  120A  118A  	fcall	_analogico
   681  00D6                     l103:	
   682  00D6  120A  118A  280C   	ljmp	start
   683  00D9                     __end_of_main:	
   684                           
   685                           	psect	text1
   686  00D9                     __ptext1:	
   687 ;; *************** function _analogico *****************
   688 ;; Defined at:
   689 ;;		line 203 in file "lab2.c"
   690 ;; Parameters:    Size  Location     Type
   691 ;;		None
   692 ;; Auto vars:     Size  Location     Type
   693 ;;		None
   694 ;; Return value:  Size  Location     Type
   695 ;;                  1    wreg      void 
   696 ;; Registers used:
   697 ;;		wreg, fsr0l, fsr0h, status,2, status,0, pclath, cstack
   698 ;; Tracked objects:
   699 ;;		On entry : 0/0
   700 ;;		On exit  : 0/0
   701 ;;		Unchanged: 0/0
   702 ;; Data sizes:     COMMON   BANK0   BANK1   BANK3   BANK2
   703 ;;      Params:         0       0       0       0       0
   704 ;;      Locals:         0       0       0       0       0
   705 ;;      Temps:          1       0       0       0       0
   706 ;;      Totals:         1       0       0       0       0
   707 ;;Total ram usage:        1 bytes
   708 ;; Hardware stack levels used:    1
   709 ;; Hardware stack levels required when called:    3
   710 ;; This function calls:
   711 ;;		_NIBBLES
   712 ;;		_desplegar
   713 ;; This function is called by:
   714 ;;		_main
   715 ;; This function uses a non-reentrant model
   716 ;;
   717                           
   718                           
   719                           ;psect for function _analogico
   720  00D9                     _analogico:	
   721  00D9                     l106:	
   722                           ;incstack = 0
   723                           ; Regs used in _analogico: [wreg-fsr0h+status,2+status,0+pclath+cstack]
   724                           ;lab2.c: 204:         while(1){
   725                           
   726  00D9                     l757:	
   727                           
   728                           ;lab2.c: 207:             if (z>=i){
   729  00D9  0875               	movf	_i,w
   730  00DA  0276               	subwf	_z,w
   731  00DB  1C03               	skipc
   732  00DC  28DE               	goto	u51
   733  00DD  28DF               	goto	u50
   734  00DE                     u51:	
   735  00DE  28E2               	goto	l761
   736  00DF                     u50:	
   737  00DF                     l759:	
   738                           
   739                           ;lab2.c: 208:                 RD2 = 1;
   740  00DF  1283               	bcf	3,5	;RP0=0, select bank0
   741  00E0  1303               	bcf	3,6	;RP1=0, select bank0
   742  00E1  1508               	bsf	8,2	;volatile
   743  00E2                     l761:	
   744                           
   745                           ;lab2.c: 210:             if (z<i){
   746  00E2  0875               	movf	_i,w
   747  00E3  0276               	subwf	_z,w
   748  00E4  1803               	skipnc
   749  00E5  28E7               	goto	u61
   750  00E6  28E8               	goto	u60
   751  00E7                     u61:	
   752  00E7  28EB               	goto	l765
   753  00E8                     u60:	
   754  00E8                     l763:	
   755                           
   756                           ;lab2.c: 211:                 RD2 = 0;
   757  00E8  1283               	bcf	3,5	;RP0=0, select bank0
   758  00E9  1303               	bcf	3,6	;RP1=0, select bank0
   759  00EA  1108               	bcf	8,2	;volatile
   760  00EB                     l765:	
   761                           
   762                           ;lab2.c: 213:         _delay((unsigned long)((1)*(4000000/4000.0)));
   763  00EB  30C7               	movlw	199
   764  00EC  00FD               	movwf	??_analogico
   765  00ED                     u177:	
   766  00ED  28EE               	nop2
   767  00EE  0BFD               	decfsz	??_analogico,f
   768  00EF  28ED               	goto	u177
   769  00F0  28F1               	nop2
   770  00F1  28F2               	nop2
   771  00F2                     l767:	
   772                           
   773                           ;lab2.c: 214:         if(ADCON0bits.GO_DONE == 0){
   774  00F2  1283               	bcf	3,5	;RP0=0, select bank0
   775  00F3  1303               	bcf	3,6	;RP1=0, select bank0
   776  00F4  189F               	btfsc	31,1	;volatile
   777  00F5  28F7               	goto	u71
   778  00F6  28F8               	goto	u70
   779  00F7                     u71:	
   780  00F7  28F9               	goto	l771
   781  00F8                     u70:	
   782  00F8                     l769:	
   783                           
   784                           ;lab2.c: 215:             ADCON0bits.GO_DONE = 1;
   785  00F8  149F               	bsf	31,1	;volatile
   786  00F9                     l771:	
   787                           
   788                           ;lab2.c: 224:         z = ADRESH;
   789  00F9  081E               	movf	30,w	;volatile
   790  00FA  00FD               	movwf	??_analogico
   791  00FB  087D               	movf	??_analogico,w
   792  00FC  00F6               	movwf	_z
   793                           
   794                           ;lab2.c: 225:         x= ADRESH;
   795  00FD  081E               	movf	30,w	;volatile
   796  00FE  00FD               	movwf	??_analogico
   797  00FF  087D               	movf	??_analogico,w
   798  0100  00F4               	movwf	_x
   799                           
   800                           ;lab2.c: 226:         y = ADRESH;
   801  0101  081E               	movf	30,w	;volatile
   802  0102  00FD               	movwf	??_analogico
   803  0103  087D               	movf	??_analogico,w
   804  0104  00F3               	movwf	_y
   805  0105                     l773:	
   806                           
   807                           ;lab2.c: 227:         NIBBLES();
   808  0105  120A  118A  2165  120A  118A  	fcall	_NIBBLES
   809  010A                     l775:	
   810                           
   811                           ;lab2.c: 230:        desplegar();
   812  010A  120A  118A  2111  120A  118A  	fcall	_desplegar
   813  010F  28D9               	goto	l106
   814  0110  0008               	return
   815  0111                     __end_of_analogico:	
   816                           
   817                           	psect	text2
   818  0111                     __ptext2:	
   819 ;; *************** function _desplegar *****************
   820 ;; Defined at:
   821 ;;		line 236 in file "lab2.c"
   822 ;; Parameters:    Size  Location     Type
   823 ;;		None
   824 ;; Auto vars:     Size  Location     Type
   825 ;;		None
   826 ;; Return value:  Size  Location     Type
   827 ;;                  1    wreg      void 
   828 ;; Registers used:
   829 ;;		wreg, fsr0l, fsr0h, status,2, status,0
   830 ;; Tracked objects:
   831 ;;		On entry : 0/0
   832 ;;		On exit  : 0/0
   833 ;;		Unchanged: 0/0
   834 ;; Data sizes:     COMMON   BANK0   BANK1   BANK3   BANK2
   835 ;;      Params:         0       0       0       0       0
   836 ;;      Locals:         0       0       0       0       0
   837 ;;      Temps:          0       0       0       0       0
   838 ;;      Totals:         0       0       0       0       0
   839 ;;Total ram usage:        0 bytes
   840 ;; Hardware stack levels used:    1
   841 ;; Hardware stack levels required when called:    2
   842 ;; This function calls:
   843 ;;		Nothing
   844 ;; This function is called by:
   845 ;;		_analogico
   846 ;; This function uses a non-reentrant model
   847 ;;
   848                           
   849                           
   850                           ;psect for function _desplegar
   851  0111                     _desplegar:	
   852  0111                     l723:	
   853                           ;incstack = 0
   854                           ; Regs used in _desplegar: [wreg-fsr0h+status,2+status,0]
   855                           
   856                           
   857                           ;lab2.c: 237:        PORTC = 0;
   858  0111  1283               	bcf	3,5	;RP0=0, select bank0
   859  0112  1303               	bcf	3,6	;RP1=0, select bank0
   860  0113  0187               	clrf	7	;volatile
   861  0114                     l725:	
   862                           
   863                           ;lab2.c: 238:         RD0 = 0;
   864  0114  1008               	bcf	8,0	;volatile
   865  0115                     l727:	
   866                           
   867                           ;lab2.c: 239:         RD1 = 0;
   868  0115  1088               	bcf	8,1	;volatile
   869  0116                     l729:	
   870                           
   871                           ;lab2.c: 240:         if(BANDERA ==1){
   872  0116  0377               	decf	_BANDERA,w
   873  0117  1D03               	btfss	3,2
   874  0118  291A               	goto	u21
   875  0119  291B               	goto	u20
   876  011A                     u21:	
   877  011A  2924               	goto	l739
   878  011B                     u20:	
   879  011B                     l731:	
   880                           
   881                           ;lab2.c: 241:             PORTC = DISPLAY1[x];
   882  011B  0874               	movf	_x,w
   883  011C  3E30               	addlw	(low (_DISPLAY1| 0))& (0+255)
   884  011D  0084               	movwf	4
   885  011E  1383               	bcf	3,7	;select IRP bank0
   886  011F  0800               	movf	0,w
   887  0120  0087               	movwf	7	;volatile
   888  0121                     l733:	
   889                           
   890                           ;lab2.c: 242:             RD0 = 1;
   891  0121  1408               	bsf	8,0	;volatile
   892  0122                     l735:	
   893                           
   894                           ;lab2.c: 243:             RD1=0;
   895  0122  1088               	bcf	8,1	;volatile
   896  0123  2931               	goto	l116
   897  0124                     l739:	
   898                           
   899                           ;lab2.c: 247:         if(BANDERA == 0){
   900  0124  0877               	movf	_BANDERA,w
   901  0125  1D03               	btfss	3,2
   902  0126  2928               	goto	u31
   903  0127  2929               	goto	u30
   904  0128                     u31:	
   905  0128  2931               	goto	l116
   906  0129                     u30:	
   907  0129                     l741:	
   908                           
   909                           ;lab2.c: 249:             PORTC = DISPLAY2[y];
   910  0129  0873               	movf	_y,w
   911  012A  3E20               	addlw	(low (_DISPLAY2| 0))& (0+255)
   912  012B  0084               	movwf	4
   913  012C  1383               	bcf	3,7	;select IRP bank0
   914  012D  0800               	movf	0,w
   915  012E  0087               	movwf	7	;volatile
   916  012F                     l743:	
   917                           
   918                           ;lab2.c: 250:             RD1 = 1;
   919  012F  1488               	bsf	8,1	;volatile
   920  0130                     l745:	
   921                           
   922                           ;lab2.c: 251:             RD0 = 0;
   923  0130  1008               	bcf	8,0	;volatile
   924  0131                     l116:	
   925  0131  0008               	return
   926  0132                     __end_of_desplegar:	
   927                           
   928                           	psect	text3
   929  0165                     __ptext3:	
   930 ;; *************** function _NIBBLES *****************
   931 ;; Defined at:
   932 ;;		line 259 in file "lab2.c"
   933 ;; Parameters:    Size  Location     Type
   934 ;;		None
   935 ;; Auto vars:     Size  Location     Type
   936 ;;		None
   937 ;; Return value:  Size  Location     Type
   938 ;;                  1    wreg      void 
   939 ;; Registers used:
   940 ;;		wreg, status,2, status,0
   941 ;; Tracked objects:
   942 ;;		On entry : 0/0
   943 ;;		On exit  : 0/0
   944 ;;		Unchanged: 0/0
   945 ;; Data sizes:     COMMON   BANK0   BANK1   BANK3   BANK2
   946 ;;      Params:         0       0       0       0       0
   947 ;;      Locals:         0       0       0       0       0
   948 ;;      Temps:          2       0       0       0       0
   949 ;;      Totals:         2       0       0       0       0
   950 ;;Total ram usage:        2 bytes
   951 ;; Hardware stack levels used:    1
   952 ;; Hardware stack levels required when called:    2
   953 ;; This function calls:
   954 ;;		Nothing
   955 ;; This function is called by:
   956 ;;		_analogico
   957 ;; This function uses a non-reentrant model
   958 ;;
   959                           
   960                           
   961                           ;psect for function _NIBBLES
   962  0165                     _NIBBLES:	
   963  0165                     l717:	
   964                           ;incstack = 0
   965                           ; Regs used in _NIBBLES: [wreg+status,2+status,0]
   966                           
   967                           
   968                           ;lab2.c: 260:         x = x & 0x0F;
   969  0165  0874               	movf	_x,w
   970  0166  390F               	andlw	15
   971  0167  00FB               	movwf	??_NIBBLES
   972  0168  087B               	movf	??_NIBBLES,w
   973  0169  00F4               	movwf	_x
   974  016A                     l719:	
   975                           
   976                           ;lab2.c: 261:         y = ((y & 0xF0)>>4);
   977  016A  0873               	movf	_y,w
   978  016B  00FB               	movwf	??_NIBBLES
   979  016C  3004               	movlw	4
   980  016D                     u15:	
   981  016D  1003               	clrc
   982  016E  0CFB               	rrf	??_NIBBLES,f
   983  016F  3EFF               	addlw	-1
   984  0170  1D03               	skipz
   985  0171  296D               	goto	u15
   986  0172  087B               	movf	??_NIBBLES,w
   987  0173  390F               	andlw	15
   988  0174  00FC               	movwf	??_NIBBLES+1
   989  0175  087C               	movf	??_NIBBLES+1,w
   990  0176  00F3               	movwf	_y
   991  0177                     l120:	
   992  0177  0008               	return
   993  0178                     __end_of_NIBBLES:	
   994                           
   995                           	psect	text4
   996  0029                     __ptext4:	
   997 ;; *************** function _ISR *****************
   998 ;; Defined at:
   999 ;;		line 61 in file "lab2.c"
  1000 ;; Parameters:    Size  Location     Type
  1001 ;;		None
  1002 ;; Auto vars:     Size  Location     Type
  1003 ;;		None
  1004 ;; Return value:  Size  Location     Type
  1005 ;;                  1    wreg      void 
  1006 ;; Registers used:
  1007 ;;		wreg, status,2, status,0, pclath, cstack
  1008 ;; Tracked objects:
  1009 ;;		On entry : 0/0
  1010 ;;		On exit  : 0/0
  1011 ;;		Unchanged: 0/0
  1012 ;; Data sizes:     COMMON   BANK0   BANK1   BANK3   BANK2
  1013 ;;      Params:         0       0       0       0       0
  1014 ;;      Locals:         0       0       0       0       0
  1015 ;;      Temps:          3       0       0       0       0
  1016 ;;      Totals:         3       0       0       0       0
  1017 ;;Total ram usage:        3 bytes
  1018 ;; Hardware stack levels used:    1
  1019 ;; Hardware stack levels required when called:    1
  1020 ;; This function calls:
  1021 ;;		_TOGGLE
  1022 ;; This function is called by:
  1023 ;;		Interrupt level 1
  1024 ;; This function uses a non-reentrant model
  1025 ;;
  1026                           
  1027                           
  1028                           ;psect for function _ISR
  1029  0029                     _ISR:	
  1030  0029                     i1l777:	
  1031                           
  1032                           ;lab2.c: 63:     if (TMR0IF == 1 ){
  1033  0029  1D0B               	btfss	11,2	;volatile
  1034  002A  282C               	goto	u8_21
  1035  002B  282D               	goto	u8_20
  1036  002C                     u8_21:	
  1037  002C  283A               	goto	i1l91
  1038  002D                     u8_20:	
  1039  002D                     i1l779:	
  1040                           
  1041                           ;lab2.c: 64:         TOGGLE();
  1042  002D  120A  118A  2178  120A  118A  	fcall	_TOGGLE
  1043  0032                     i1l781:	
  1044                           
  1045                           ;lab2.c: 65:         TMR0IF=0;
  1046  0032  110B               	bcf	11,2	;volatile
  1047  0033                     i1l783:	
  1048                           
  1049                           ;lab2.c: 66:         TMR0= 2;
  1050  0033  3002               	movlw	2
  1051  0034  1283               	bcf	3,5	;RP0=0, select bank0
  1052  0035  1303               	bcf	3,6	;RP1=0, select bank0
  1053  0036  0081               	movwf	1	;volatile
  1054  0037                     i1l785:	
  1055                           
  1056                           ;lab2.c: 67:         PORTA = i;
  1057  0037  0875               	movf	_i,w
  1058  0038  0085               	movwf	5	;volatile
  1059  0039  287D               	goto	i1l92
  1060  003A                     i1l91:	
  1061                           ;lab2.c: 69:     }
  1062                           
  1063                           
  1064                           ;lab2.c: 70:     if (INTCONbits.RBIF==1 ){
  1065  003A  1C0B               	btfss	11,0	;volatile
  1066  003B  283D               	goto	u9_21
  1067  003C  283E               	goto	u9_20
  1068  003D                     u9_21:	
  1069  003D  2876               	goto	i1l93
  1070  003E                     u9_20:	
  1071  003E                     i1l789:	
  1072                           
  1073                           ;lab2.c: 71:         INTCONbits.RBIF = 0;
  1074  003E  100B               	bcf	11,0	;volatile
  1075                           
  1076                           ;lab2.c: 72:         (INTCONbits.GIE = 0);
  1077  003F  138B               	bcf	11,7	;volatile
  1078                           
  1079                           ;lab2.c: 75:         if (RB0 == 1){
  1080  0040  1283               	bcf	3,5	;RP0=0, select bank0
  1081  0041  1303               	bcf	3,6	;RP1=0, select bank0
  1082  0042  1C06               	btfss	6,0	;volatile
  1083  0043  2845               	goto	u10_21
  1084  0044  2846               	goto	u10_20
  1085  0045                     u10_21:	
  1086  0045  2849               	goto	i1l94
  1087  0046                     u10_20:	
  1088  0046                     i1l791:	
  1089                           
  1090                           ;lab2.c: 76:            ANTIREBOTEA = 1;
  1091  0046  01F1               	clrf	_ANTIREBOTEA
  1092  0047  0AF1               	incf	_ANTIREBOTEA,f
  1093                           
  1094                           ;lab2.c: 77:            (INTCONbits.GIE = 0);
  1095  0048  138B               	bcf	11,7	;volatile
  1096  0049                     i1l94:	
  1097                           ;lab2.c: 81:        }
  1098                           
  1099                           
  1100                           ;lab2.c: 82:         if(RB0 == 0 && ANTIREBOTEA ==1 ){
  1101  0049  1806               	btfsc	6,0	;volatile
  1102  004A  284C               	goto	u11_21
  1103  004B  284D               	goto	u11_20
  1104  004C                     u11_21:	
  1105  004C  285D               	goto	i1l95
  1106  004D                     u11_20:	
  1107  004D                     i1l793:	
  1108  004D  0371               	decf	_ANTIREBOTEA,w
  1109  004E  1D03               	btfss	3,2
  1110  004F  2851               	goto	u12_21
  1111  0050  2852               	goto	u12_20
  1112  0051                     u12_21:	
  1113  0051  285D               	goto	i1l95
  1114  0052                     u12_20:	
  1115  0052                     i1l795:	
  1116                           
  1117                           ;lab2.c: 83:             ANTIREBOTEA = 0;
  1118  0052  01F1               	clrf	_ANTIREBOTEA
  1119  0053                     i1l797:	
  1120                           
  1121                           ;lab2.c: 85:             ADC++;
  1122  0053  3001               	movlw	1
  1123  0054  00F8               	movwf	??_ISR
  1124  0055  0878               	movf	??_ISR,w
  1125  0056  07F2               	addwf	_ADC,f
  1126  0057                     i1l799:	
  1127                           
  1128                           ;lab2.c: 87:             i = ADC;
  1129  0057  0872               	movf	_ADC,w
  1130  0058  00F8               	movwf	??_ISR
  1131  0059  0878               	movf	??_ISR,w
  1132  005A  00F5               	movwf	_i
  1133  005B                     i1l801:	
  1134                           
  1135                           ;lab2.c: 88:             (INTCONbits.GIE = 1);
  1136  005B  178B               	bsf	11,7	;volatile
  1137  005C  287D               	goto	i1l92
  1138  005D                     i1l95:	
  1139                           ;lab2.c: 92:         }
  1140                           
  1141                           
  1142                           ;lab2.c: 96:        if(RB1 == 1 ){
  1143  005D  1C86               	btfss	6,1	;volatile
  1144  005E  2860               	goto	u13_21
  1145  005F  2861               	goto	u13_20
  1146  0060                     u13_21:	
  1147  0060  2864               	goto	i1l96
  1148  0061                     u13_20:	
  1149  0061                     i1l805:	
  1150                           
  1151                           ;lab2.c: 97:             ANTIREBOTEB= 1;
  1152  0061  01F0               	clrf	_ANTIREBOTEB
  1153  0062  0AF0               	incf	_ANTIREBOTEB,f
  1154                           
  1155                           ;lab2.c: 98:             (INTCONbits.GIE = 0);
  1156  0063  138B               	bcf	11,7	;volatile
  1157  0064                     i1l96:	
  1158                           ;lab2.c: 100:         }
  1159                           
  1160                           
  1161                           ;lab2.c: 101:        if(RB1 == 0 && ANTIREBOTEB ==1){
  1162  0064  1886               	btfsc	6,1	;volatile
  1163  0065  2867               	goto	u14_21
  1164  0066  2868               	goto	u14_20
  1165  0067                     u14_21:	
  1166  0067  287D               	goto	i1l92
  1167  0068                     u14_20:	
  1168  0068                     i1l807:	
  1169  0068  0370               	decf	_ANTIREBOTEB,w
  1170  0069  1D03               	btfss	3,2
  1171  006A  286C               	goto	u15_21
  1172  006B  286D               	goto	u15_20
  1173  006C                     u15_21:	
  1174  006C  287D               	goto	i1l92
  1175  006D                     u15_20:	
  1176  006D                     i1l809:	
  1177                           
  1178                           ;lab2.c: 102:             ANTIREBOTEB= 0;
  1179  006D  01F0               	clrf	_ANTIREBOTEB
  1180  006E                     i1l811:	
  1181                           
  1182                           ;lab2.c: 103:             ADC--;
  1183  006E  3001               	movlw	1
  1184  006F  02F2               	subwf	_ADC,f
  1185  0070                     i1l813:	
  1186                           
  1187                           ;lab2.c: 105:             i = ADC;
  1188  0070  0872               	movf	_ADC,w
  1189  0071  00F8               	movwf	??_ISR
  1190  0072  0878               	movf	??_ISR,w
  1191  0073  00F5               	movwf	_i
  1192  0074                     i1l815:	
  1193                           
  1194                           ;lab2.c: 106:             (INTCONbits.GIE = 1);
  1195  0074  178B               	bsf	11,7	;volatile
  1196  0075  287D               	goto	i1l92
  1197  0076                     i1l93:	
  1198                           ;lab2.c: 111:     }
  1199                           
  1200                           
  1201                           ;lab2.c: 112:     if (PIR1bits.ADIF ==1){
  1202  0076  1283               	bcf	3,5	;RP0=0, select bank0
  1203  0077  1303               	bcf	3,6	;RP1=0, select bank0
  1204  0078  1F0C               	btfss	12,6	;volatile
  1205  0079  287B               	goto	u16_21
  1206  007A  287C               	goto	u16_20
  1207  007B                     u16_21:	
  1208  007B  287D               	goto	i1l92
  1209  007C                     u16_20:	
  1210  007C                     i1l819:	
  1211                           
  1212                           ;lab2.c: 113:         PIR1bits.ADIF = 0;
  1213  007C  130C               	bcf	12,6	;volatile
  1214  007D                     i1l92:	
  1215                           ;lab2.c: 114:         return;
  1216                           
  1217  007D  087A               	movf	??_ISR+2,w
  1218  007E  008A               	movwf	10
  1219  007F  0E79               	swapf	(??_ISR+1)^(0+4294967168),w
  1220  0080  0083               	movwf	3
  1221  0081  0EFE               	swapf	btemp,f
  1222  0082  0E7E               	swapf	btemp,w
  1223  0083  0009               	retfie
  1224  0084                     __end_of_ISR:	
  1225                           
  1226                           	psect	intentry
  1227  0004                     __pintentry:	
  1228                           ;incstack = 0
  1229                           ; Regs used in _ISR: [wreg+status,2+status,0+pclath+cstack]
  1230                           
  1231  0004                     interrupt_function:	
  1232  007E                     saved_w	set	btemp
  1233  0004  00FE               	movwf	btemp
  1234  0005  0E03               	swapf	3,w
  1235  0006  00F9               	movwf	??_ISR+1
  1236  0007  080A               	movf	10,w
  1237  0008  00FA               	movwf	??_ISR+2
  1238  0009  120A  118A  2829   	ljmp	_ISR
  1239                           
  1240                           	psect	text5
  1241  0178                     __ptext5:	
  1242 ;; *************** function _TOGGLE *****************
  1243 ;; Defined at:
  1244 ;;		line 267 in file "lab2.c"
  1245 ;; Parameters:    Size  Location     Type
  1246 ;;		None
  1247 ;; Auto vars:     Size  Location     Type
  1248 ;;		None
  1249 ;; Return value:  Size  Location     Type
  1250 ;;                  1    wreg      void 
  1251 ;; Registers used:
  1252 ;;		wreg, status,2, status,0
  1253 ;; Tracked objects:
  1254 ;;		On entry : 0/0
  1255 ;;		On exit  : 0/0
  1256 ;;		Unchanged: 0/0
  1257 ;; Data sizes:     COMMON   BANK0   BANK1   BANK3   BANK2
  1258 ;;      Params:         0       0       0       0       0
  1259 ;;      Locals:         0       0       0       0       0
  1260 ;;      Temps:          0       0       0       0       0
  1261 ;;      Totals:         0       0       0       0       0
  1262 ;;Total ram usage:        0 bytes
  1263 ;; Hardware stack levels used:    1
  1264 ;; This function calls:
  1265 ;;		Nothing
  1266 ;; This function is called by:
  1267 ;;		_ISR
  1268 ;; This function uses a non-reentrant model
  1269 ;;
  1270                           
  1271                           
  1272                           ;psect for function _TOGGLE
  1273  0178                     _TOGGLE:	
  1274  0178                     i1l749:	
  1275                           ;incstack = 0
  1276                           ; Regs used in _TOGGLE: [wreg+status,2+status,0]
  1277                           
  1278                           
  1279                           ;lab2.c: 268:         if(BANDERA==1){
  1280  0178  0377               	decf	_BANDERA,w
  1281  0179  1D03               	btfss	3,2
  1282  017A  297C               	goto	u4_21
  1283  017B  297D               	goto	u4_20
  1284  017C                     u4_21:	
  1285  017C  297F               	goto	i1l123
  1286  017D                     u4_20:	
  1287  017D                     i1l751:	
  1288                           
  1289                           ;lab2.c: 269:             BANDERA =0;
  1290  017D  01F7               	clrf	_BANDERA
  1291  017E  2981               	goto	i1l124
  1292  017F                     i1l123:	
  1293                           ;lab2.c: 272:         else{
  1294                           
  1295                           
  1296                           ;lab2.c: 273:             BANDERA = 1;
  1297  017F  01F7               	clrf	_BANDERA
  1298  0180  0AF7               	incf	_BANDERA,f
  1299  0181                     i1l124:	
  1300                           ;lab2.c: 274:             return;
  1301                           
  1302  0181  0008               	return
  1303  0182                     __end_of_TOGGLE:	
  1304  007E                     btemp	set	126	;btemp
  1305  007E                     wtemp0	set	126


Data Sizes:
    Strings     0
    Constant    0
    Data        32
    BSS         8
    Persistent  0
    Stack       0

Auto Spaces:
    Space          Size  Autos    Used
    COMMON           14      6      14
    BANK0            80      0      32
    BANK1            80      0       0
    BANK3            96      0       0
    BANK2            96      0       0

Pointer List with Targets:

    None.

Critical Paths under _main in COMMON

    _main->_analogico
    _analogico->_NIBBLES

Critical Paths under _ISR in COMMON

    None.

Critical Paths under _main in BANK0

    None.

Critical Paths under _ISR in BANK0

    None.

Critical Paths under _main in BANK1

    None.

Critical Paths under _ISR in BANK1

    None.

Critical Paths under _main in BANK3

    None.

Critical Paths under _ISR in BANK3

    None.

Critical Paths under _main in BANK2

    None.

Critical Paths under _ISR in BANK2

    None.

Call Graph Tables:

 ---------------------------------------------------------------------------------
 (Depth) Function   	        Calls       Base Space   Used Autos Params    Refs
 ---------------------------------------------------------------------------------
 (0) _main                                                 0     0      0       0
                          _analogico
 ---------------------------------------------------------------------------------
 (1) _analogico                                            1     1      0       0
                                              5 COMMON     1     1      0
                            _NIBBLES
                          _desplegar
 ---------------------------------------------------------------------------------
 (2) _desplegar                                            0     0      0       0
 ---------------------------------------------------------------------------------
 (2) _NIBBLES                                              2     2      0       0
                                              3 COMMON     2     2      0
 ---------------------------------------------------------------------------------
 Estimated maximum stack depth 2
 ---------------------------------------------------------------------------------
 (Depth) Function   	        Calls       Base Space   Used Autos Params    Refs
 ---------------------------------------------------------------------------------
 (3) _ISR                                                  3     3      0       0
                                              0 COMMON     3     3      0
                             _TOGGLE
 ---------------------------------------------------------------------------------
 (4) _TOGGLE                                               0     0      0       0
 ---------------------------------------------------------------------------------
 Estimated maximum stack depth 4
 ---------------------------------------------------------------------------------

 Call Graph Graphs:

 _main (ROOT)
   _analogico
     _NIBBLES
     _desplegar

 _ISR (ROOT)
   _TOGGLE

 Address spaces:
Name               Size   Autos  Total    Cost      Usage
BANK3               60      0       0       9        0.0%
BITBANK3            60      0       0       8        0.0%
SFR3                 0      0       0       4        0.0%
BITSFR3              0      0       0       4        0.0%
BANK2               60      0       0      11        0.0%
BITBANK2            60      0       0      10        0.0%
SFR2                 0      0       0       5        0.0%
BITSFR2              0      0       0       5        0.0%
BANK1               50      0       0       7        0.0%
BITBANK1            50      0       0       6        0.0%
SFR1                 0      0       0       2        0.0%
BITSFR1              0      0       0       2        0.0%
BANK0               50      0      20       5       40.0%
BITBANK0            50      0       0       4        0.0%
SFR0                 0      0       0       1        0.0%
BITSFR0              0      0       0       1        0.0%
COMMON               E      6       E       1      100.0%
BITCOMMON            E      0       0       0        0.0%
CODE                 0      0       0       0        0.0%
DATA                 0      0      2E      12        0.0%
ABS                  0      0      2E       3        0.0%
NULL                 0      0       0       0        0.0%
STACK                0      0       0       2        0.0%
EEDATA             100      0       0       0        0.0%


Microchip Technology PIC Macro Assembler V2.10 build 88905656 
Symbol Table                                                                                   Wed Feb 05 15:44:40 2020

                       _i 0075                         _x 0074                         _y 0073  
                       _z 0076                         pc 0002               __CFG_CP$OFF 0000  
                      u20 011B                        u21 011A                        u30 0129  
                      u15 016D                        u31 0128                        u50 00DF  
                      u51 00DE                        u60 00E8                        u61 00E7  
                      u70 00F8                        u71 00F7                        fsr 0004  
                     l103 00D6                       l120 0177                       l106 00D9  
                     l116 0131                       _ADC 0072                       l731 011B  
                     l723 0111                       l717 0165                       l741 0129  
                     l733 0121                       l725 0114                       l901 00C2  
                     l821 0084                       l719 016A                       l743 012F  
                     l735 0122                       l727 0115                       l911 00C9  
                     l903 00C3                       l831 008C                       l823 0088  
                     l745 0130                       l729 0116                       l761 00E2  
                     l921 00D0                       l913 00CC                       l905 00C6  
                     l841 0097                       l833 008F                       l825 0089  
                     l739 0124                       l771 00F9                       l763 00E8  
                     l923 00D1                       l915 00CD                       l907 00C7  
                     l851 009E                       l843 0098                       l835 0091  
                     l827 008A                       l773 0105                       l765 00EB  
                     l757 00D9                       l917 00CE                       l909 00C8  
                     l861 00A3                       l853 009F                       l845 0099  
                     l837 0094                       l829 008B                       l775 010A  
                     l767 00F2                       l759 00DF                       l919 00CF  
                     l871 00AA                       l863 00A4                       l855 00A0  
                     l847 009C                       l839 0096                       l769 00F8  
                     l881 00AF                       l873 00AB                       l865 00A5  
                     l857 00A1                       l849 009D                       l891 00B9  
                     l883 00B0                       l875 00AC                       l867 00A6  
                     l859 00A2                       l893 00BA                       l885 00B3  
                     l877 00AD                       l869 00A7                       l895 00BD  
                     l887 00B7                       l879 00AE                       l897 00C0  
                     l889 00B8                       l899 00C1                       _RB0 0030  
                     _RB1 0031                       _RD0 0040                       _RD1 0041  
                     _RD2 0042                       u177 00ED              __CFG_CPD$OFF 0000  
                     _ISR 0029                       fsr0 0004                       indf 0000  
         __end_of_NIBBLES 0178              __CFG_LVP$OFF 0000                      ?_ISR 0078  
                    i1l91 003A                      i1l92 007D                      i1l93 0076  
                    i1l94 0049                      i1l95 005D                      i1l96 0064  
                    _TMR0 0001                      u4_20 017D                      u4_21 017C  
                    u8_20 002D                      u8_21 002C                      u9_20 003E  
                    u9_21 003D              __CFG_WRT$OFF 0000                      _main 0084  
                    btemp 007E                      start 000C             __CFG_IESO$OFF 0000  
                   ??_ISR 0078                     ?_main 0078             __CFG_WDTE$OFF 0000  
                   _ANSEL 0188                     i1l123 017F                     i1l124 0181  
                   i1l801 005B                     i1l811 006E                     i1l813 0070  
                   i1l805 0061                     i1l751 017D                     i1l815 0074  
                   i1l807 0068                     i1l809 006D                     i1l819 007C  
                   i1l749 0178                     i1l781 0032                     i1l791 0046  
                   i1l783 0033                     i1l793 004D                     i1l785 0037  
                   i1l777 0029                     i1l795 0052                     i1l779 002D  
                   i1l797 0053                     i1l789 003E                     i1l799 0057  
                   u10_20 0046                     u10_21 0045                     u11_20 004D  
                   u11_21 004C                     u12_20 0052                     u12_21 0051  
                   u13_20 0061                     u13_21 0060                     u14_20 0068  
                   u14_21 0067                     u15_20 006D                     u15_21 006C  
                   u16_20 007C                     u16_21 007B                     _PORTA 0005  
                   _PORTB 0006                     _PORTC 0007                     _PORTD 0008  
                   _PORTE 0009                     _TRISA 0085                     _TRISB 0086  
                   _TRISC 0087                     _TRISD 0088                     _TRISE 0089  
          __CFG_FCMEN$OFF 0000            __CFG_BOREN$OFF 0000                     pclath 000A  
                   status 0003                     wtemp0 007E            __CFG_MCLRE$OFF 0000  
         __initialization 000F              __end_of_main 00D9                    ??_main 007E  
               ??_NIBBLES 007B                    _ADRESH 001E                    _ANSELH 0189  
                  _TMR0IF 005A                    _TOGGLE 0178            __CFG_PWRTE$OFF 0000  
                  saved_w 007E   __end_of__initialization 0025            __pcstackCOMMON 0078  
            __pidataBANK0 0132        __size_of_analogico 0038            _OPTION_REGbits 0081  
      __size_of_desplegar 0021                   ?_TOGGLE 0078                __pmaintext 0084  
              __pintentry 0004                   _BANDERA 0077                   _NIBBLES 0165  
       __end_of_analogico 0111           __size_of_TOGGLE 000A         __end_of_desplegar 0132  
                 __ptext1 00D9                   __ptext2 0111                   __ptext3 0165  
                 __ptext4 0029                   __ptext5 0178              __size_of_ISR 005B  
    end_of_initialization 0025            __end_of_TOGGLE 0182       start_initialization 000F  
             __end_of_ISR 0084                  ??_TOGGLE 0078  __CFG_FOSC$INTRC_NOCLKOUT 0000  
              init_fetch0 0152               __pdataBANK0 0020                  ?_NIBBLES 0078  
             __pbssCOMMON 0070                 ___latbits 0002               _ANTIREBOTEA 0071  
             _ANTIREBOTEB 0070                 _analogico 00D9                 _desplegar 0111  
                _DISPLAY1 0030                  _DISPLAY2 0020         interrupt_function 0004  
                _IOCBbits 0096                  _PIE1bits 008C                ?_analogico 0078  
                _PIR1bits 000C                ?_desplegar 0078                _ADCON0bits 001F  
              _ADCON1bits 009F          __size_of_NIBBLES 0013         __CFG_BOR4V$BOR40V 0000  
           __size_of_main 0055               ??_analogico 007D               ??_desplegar 007B  
              _INTCONbits 000B                  init_ram0 0156                  intlevel1 0000  
              _OSCCONbits 008F  
